target datalayout = "e-m:e-p270:32:32-p271:32:32-p272:64:64-i64:64-i128:128-f80:128-n8:16:32:64-S128"
target triple = "x86_64-pc-linux-gnu"

%"class.std::__cxx11::basic_string" = type { %"struct.std::__cxx11::basic_string<char>::_Alloc_hider", i64, %union.anon.2 }
%"struct.std::__cxx11::basic_string<char>::_Alloc_hider" = type { ptr }
%union.anon.2 = type { i64, [8 x i8] }
%"struct.vcpkg::Json::JsonStyle" = type { i32, i64 }
%"struct.vcpkg::Json::(anonymous namespace)::Stringifier" = type { %"struct.vcpkg::Json::JsonStyle", ptr }

; Function Attrs: mustprogress uwtable
define dso_local void @_ZN5vcpkg4Json9stringifyB5cxx11ERKNS0_5ValueENS0_9JsonStyleE(ptr dead_on_unwind noalias writable sret(%"class.std::__cxx11::basic_string") align 8 %0, ptr noundef nonnull align 8 dereferenceable(8) %1, i32 %2, i64 %3) #4 personality ptr @__gxx_personality_v0 {
  %5 = alloca ptr, align 8
  %6 = alloca %"struct.vcpkg::Json::JsonStyle", align 8
  %7 = alloca ptr, align 8
  %8 = alloca i1, align 1
  %9 = alloca %"struct.vcpkg::Json::(anonymous namespace)::Stringifier", align 8
  %10 = alloca ptr, align 8
  %11 = alloca i32, align 4
  store ptr %0, ptr %5, align 8
  %12 = getelementptr inbounds { i32, i64 }, ptr %6, i32 0, i32 0
  store i32 %2, ptr %12, align 8
  %13 = getelementptr inbounds { i32, i64 }, ptr %6, i32 0, i32 1
  store i64 %3, ptr %13, align 8
  store ptr %1, ptr %7, align 8
  store i1 false, ptr %8, align 1
  call void @_ZNSt7__cxx1112basic_stringIcSt11char_traitsIcESaIcEEC1Ev(ptr noundef nonnull align 8 dereferenceable(32) %0) #9
  %14 = getelementptr inbounds %"struct.vcpkg::Json::(anonymous namespace)::Stringifier", ptr %9, i32 0, i32 0
  call void @llvm.memcpy.p0.p0.i64(ptr align 8 %14, ptr align 8 %6, i64 16, i1 false)
  %15 = getelementptr inbounds %"struct.vcpkg::Json::(anonymous namespace)::Stringifier", ptr %9, i32 0, i32 1
  store ptr %0, ptr %15, align 8
  %16 = load ptr, ptr %7, align 8
  invoke void @_ZN5vcpkg4Json12_GLOBAL__N_111Stringifier9stringifyERKNS0_5ValueEm(ptr noundef nonnull align 8 dereferenceable(24) %9, ptr noundef nonnull align 8 dereferenceable(8) %16, i64 noundef 0)
          to label %17 unwind label %20

17:                                               ; preds = %4
  invoke void @_ZNSt7__cxx1112basic_stringIcSt11char_traitsIcESaIcEE9push_backEc(ptr noundef nonnull align 8 dereferenceable(32) %0, i8 noundef signext 10)
          to label %18 unwind label %20

18:                                               ; preds = %17
  store i1 true, ptr %8, align 1
  %19 = load i1, ptr %8, align 1
  br i1 %19, label %25, label %24

20:                                               ; preds = %17, %4
  %21 = landingpad { ptr, i32 }
          cleanup
  %22 = extractvalue { ptr, i32 } %21, 0
  store ptr %22, ptr %10, align 8
  %23 = extractvalue { ptr, i32 } %21, 1
  store i32 %23, ptr %11, align 4
  call void @_ZNSt7__cxx1112basic_stringIcSt11char_traitsIcESaIcEED1Ev(ptr noundef nonnull align 8 dereferenceable(32) %0) #9
  br label %26

24:                                               ; preds = %18
  call void @_ZNSt7__cxx1112basic_stringIcSt11char_traitsIcESaIcEED1Ev(ptr noundef nonnull align 8 dereferenceable(32) %0) #9
  br label %25

25:                                               ; preds = %24, %18
  ret void

26:                                               ; preds = %20
  %27 = load ptr, ptr %10, align 8
  %28 = load i32, ptr %11, align 4
  %29 = insertvalue { ptr, i32 } poison, ptr %27, 0
  %30 = insertvalue { ptr, i32 } %29, i32 %28, 1
  resume { ptr, i32 } %30
}

; Function Attrs: mustprogress nounwind uwtable
define linkonce_odr dso_local void @_ZN5vcpkg4Json9JsonStyleC2Ev(ptr noundef nonnull align 8 dereferenceable(16) %0) unnamed_addr #0 comdat align 2 {
  %2 = alloca ptr, align 8
  store ptr %0, ptr %2, align 8
  %3 = load ptr, ptr %2, align 8
  %4 = getelementptr inbounds %"struct.vcpkg::Json::JsonStyle", ptr %3, i32 0, i32 0
  store i32 0, ptr %4, align 8
  %5 = getelementptr inbounds %"struct.vcpkg::Json::JsonStyle", ptr %3, i32 0, i32 1
  store i64 2, ptr %5, align 8
  ret void
}

; Function Attrs: mustprogress uwtable
define dso_local void @_ZN5vcpkg4Json9stringifyB5cxx11ERKNS0_5ValueE(ptr dead_on_unwind noalias writable sret(%"class.std::__cxx11::basic_string") align 8 %0, ptr noundef nonnull align 8 dereferenceable(8) %1) #4 {
  %3 = alloca ptr, align 8
  %4 = alloca ptr, align 8
  %5 = alloca %"struct.vcpkg::Json::JsonStyle", align 8
  store ptr %0, ptr %3, align 8
  store ptr %1, ptr %4, align 8
  %6 = load ptr, ptr %4, align 8
  call void @llvm.memset.p0.i64(ptr align 8 %5, i8 0, i64 16, i1 false)
  call void @_ZN5vcpkg4Json9JsonStyleC2Ev(ptr noundef nonnull align 8 dereferenceable(16) %5) #9
  %7 = getelementptr inbounds { i32, i64 }, ptr %5, i32 0, i32 0
  %8 = load i32, ptr %7, align 8
  %9 = getelementptr inbounds { i32, i64 }, ptr %5, i32 0, i32 1
  %10 = load i64, ptr %9, align 8
  call void @_ZN5vcpkg4Json9stringifyB5cxx11ERKNS0_5ValueENS0_9JsonStyleE(ptr dead_on_unwind writable sret(%"class.std::__cxx11::basic_string") align 8 %0, ptr noundef nonnull align 8 dereferenceable(8) %6, i32 %8, i64 %10)
  ret void
}